target datalayout = "e-m:e-p270:32:32-p271:32:32-p272:64:64-i64:64-i128:128-f80:128-n8:16:32:64-S128"
target triple = "x86_64-pc-linux-gnu"

%struct.pmix_class_t = type { ptr, ptr, ptr, ptr, i32, i32, ptr, ptr, i64 }
%struct.pmix_server_globals_t = type { %struct.pmix_list_t, %struct.pmix_pointer_array_t, %struct.pmix_list_t, %struct.pmix_list_t, %struct.pmix_list_t, %struct.pmix_list_t, ptr, %struct.pmix_list_t, ptr, %struct.pmix_list_t, %struct.pmix_list_t, %struct.pmix_list_t, i64, i8, ptr, ptr, i8, i32, i32, i32, i32, i32, i32, i32, i32, i32, i32, i32, i32, i32, i32, i32, i32, i32, i32 }
%struct.pmix_pointer_array_t = type { %struct.pmix_object_t, i32, i32, i32, i32, i32, ptr, ptr }
%struct.pmix_object_t = type { %union.pthread_mutex_t, ptr, i32, %struct.pmix_tma }
%union.pthread_mutex_t = type { %struct.__pthread_mutex_s }
%struct.__pthread_mutex_s = type { i32, i32, i32, i32, i32, i16, i16, %struct.__pthread_internal_list }
%struct.__pthread_internal_list = type { ptr, ptr }
%struct.pmix_tma = type { ptr, ptr, ptr, ptr, ptr, ptr, ptr, ptr }
%struct.pmix_list_t = type { %struct.pmix_object_t, %struct.pmix_list_item_t, i64 }
%struct.pmix_list_item_t = type { %struct.pmix_object_t, ptr, ptr, i32 }
%struct.pmix_output_desc_t = type { i8, i8, i32, i8, i32, ptr, ptr, i32, ptr, i32, i8, i8, i8, i8, ptr, i32, i32 }
%struct.pmix_globals_t = type { i32, %struct.pmix_proc, %struct.pmix_value, %struct.pmix_value, ptr, i32, i32, ptr, i32, i32, i32, i32, i32, ptr, ptr, i32, %struct.pmix_events_t, i8, i8, %struct.timeval, %struct.pmix_list_t, %struct.pmix_pointer_array_t, i32, i32, %struct.pmix_hotel_t, i8, %struct.pmix_list_t, i8, i8, i8, i64, %struct.pmix_list_t, %struct.pmix_topology_t, %struct.pmix_cpuset_t, i8, i8, %struct.pmix_iof_flags_t, %struct.pmix_keyindex_t }
%struct.pmix_proc = type { [256 x i8], i32 }
%struct.pmix_value = type { i16, %union.anon.9 }
%union.anon.9 = type { %struct.pmix_envar_t }
%struct.pmix_envar_t = type { ptr, ptr, i8 }
%struct.pmix_events_t = type { %struct.pmix_object_t, i64, ptr, ptr, %struct.pmix_list_t, %struct.pmix_list_t, %struct.pmix_list_t, %struct.pmix_list_t }
%struct.timeval = type { i64, i64 }
%struct.pmix_hotel_t = type { %struct.pmix_object_t, i32, ptr, %struct.timeval, ptr, ptr, ptr, ptr, i32 }
%struct.pmix_topology_t = type { ptr, ptr }
%struct.pmix_cpuset_t = type { ptr, ptr }
%struct.pmix_iof_flags_t = type { i8, i8, i8, i8, i8, i8, i8, ptr, ptr, i8, i8, i8, i8, i8, i8 }
%struct.pmix_keyindex_t = type { %struct.pmix_object_t, ptr, i32 }
%struct.pmix_dmdx_reply_caddy_t = type { %struct.pmix_object_t, %struct.event, i8, i32, ptr, i64, ptr, ptr, ptr }
%struct.event = type { %struct.event_callback, %union.anon.0, i32, ptr, %union.anon.2, i16, i16, %struct.timeval }
%struct.event_callback = type { %struct.anon, i16, i8, i8, %union.anon, ptr }
%struct.anon = type { ptr, ptr }
%union.anon = type { ptr }
%union.anon.0 = type { %struct.anon.1 }
%struct.anon.1 = type { ptr, ptr }
%union.anon.2 = type { %struct.anon.3 }
%struct.anon.3 = type { %struct.anon.4, %struct.timeval }
%struct.anon.4 = type { ptr, ptr }
%struct.pmix_dmdx_local_t = type { %struct.pmix_list_item_t, %struct.pmix_proc, %struct.pmix_list_t, ptr, i64 }

@pmix_dmdx_reply_caddy_t_class = global %struct.pmix_class_t { ptr @.str, ptr @pmix_object_t_class, ptr @dcd_con, ptr null, i32 0, i32 0, ptr null, ptr null, i64 296 }, align 8
@pmix_server_globals = external global %struct.pmix_server_globals_t, align 8
@pmix_output_info = external global [0 x %struct.pmix_output_desc_t], align 8
@pmix_globals = external global %struct.pmix_globals_t, align 8
@.str.3 = private unnamed_addr constant [25 x i8] c"server/pmix_server_get.c\00", align 1
@pmix_class_init_epoch = external global i32, align 4
@.str.26 = private unnamed_addr constant [35 x i8] c"[%s:%d] queue dmdx reply for %s:%u\00", align 1

; Function Attrs: inlinehint nounwind uwtable
define internal void @pmix_obj_run_constructors(ptr noundef %0) #5 {
  %2 = alloca ptr, align 8
  %3 = alloca ptr, align 8
  store ptr %0, ptr %2, align 8, !tbaa !150
  call void @llvm.lifetime.start.p0(i64 8, ptr %3) #13
  %4 = load ptr, ptr %2, align 8, !tbaa !150
  %5 = getelementptr inbounds nuw %struct.pmix_object_t, ptr %4, i32 0, i32 1
  %6 = load ptr, ptr %5, align 8, !tbaa !83
  %7 = getelementptr inbounds nuw %struct.pmix_class_t, ptr %6, i32 0, i32 6
  %8 = load ptr, ptr %7, align 8, !tbaa !163
  store ptr %8, ptr %3, align 8, !tbaa !3
  br label %9

9:                                                ; preds = %13, %1
  %10 = load ptr, ptr %3, align 8, !tbaa !3
  %11 = load ptr, ptr %10, align 8, !tbaa !3
  %12 = icmp ne ptr null, %11
  br i1 %12, label %13, label %19

13:                                               ; preds = %9
  %14 = load ptr, ptr %3, align 8, !tbaa !3
  %15 = load ptr, ptr %14, align 8, !tbaa !3
  %16 = load ptr, ptr %2, align 8, !tbaa !150
  call void %15(ptr noundef %16)
  %17 = load ptr, ptr %3, align 8, !tbaa !3
  %18 = getelementptr inbounds nuw ptr, ptr %17, i32 1
  store ptr %18, ptr %3, align 8, !tbaa !3
  br label %9, !llvm.loop !164

19:                                               ; preds = %9
  call void @llvm.lifetime.end.p0(i64 8, ptr %3) #13
  ret void
}

; Function Attrs: inlinehint nounwind uwtable
define internal ptr @pmix_tma_malloc(ptr noundef %0, i64 noundef %1) #5 {
  %3 = alloca ptr, align 8
  %4 = alloca ptr, align 8
  %5 = alloca i64, align 8
  store ptr %0, ptr %4, align 8, !tbaa !153
  store i64 %1, ptr %5, align 8, !tbaa !65
  %6 = load ptr, ptr %4, align 8, !tbaa !153
  %7 = icmp ne ptr null, %6
  br i1 %7, label %8, label %15

8:                                                ; preds = %2
  %9 = load ptr, ptr %4, align 8, !tbaa !153
  %10 = getelementptr inbounds nuw %struct.pmix_tma, ptr %9, i32 0, i32 0
  %11 = load ptr, ptr %10, align 8, !tbaa !203
  %12 = load ptr, ptr %4, align 8, !tbaa !153
  %13 = load i64, ptr %5, align 8, !tbaa !65
  %14 = call ptr %11(ptr noundef %12, i64 noundef %13)
  store ptr %14, ptr %3, align 8
  br label %18

15:                                               ; preds = %2
  %16 = load i64, ptr %5, align 8, !tbaa !65
  %17 = call noalias ptr @malloc(i64 noundef %16) #17
  store ptr %17, ptr %3, align 8
  br label %18

18:                                               ; preds = %15, %8
  %19 = load ptr, ptr %3, align 8
  ret ptr %19
}

; Function Attrs: inlinehint nounwind uwtable
define internal void @pmix_atomic_wmb() #5 {
  fence release
  ret void
}

; Function Attrs: inlinehint nounwind uwtable
define internal ptr @pmix_obj_new_tma(ptr noundef %0, ptr noundef %1) #5 {
  %3 = alloca ptr, align 8
  %4 = alloca ptr, align 8
  %5 = alloca ptr, align 8
  store ptr %0, ptr %3, align 8, !tbaa !200
  store ptr %1, ptr %4, align 8, !tbaa !153
  call void @llvm.lifetime.start.p0(i64 8, ptr %5) #13
  %6 = load ptr, ptr %4, align 8, !tbaa !153
  %7 = load ptr, ptr %3, align 8, !tbaa !200
  %8 = getelementptr inbounds nuw %struct.pmix_class_t, ptr %7, i32 0, i32 8
  %9 = load i64, ptr %8, align 8, !tbaa !201
  %10 = call ptr @pmix_tma_malloc(ptr noundef %6, i64 noundef %9)
  store ptr %10, ptr %5, align 8, !tbaa !150
  %11 = load i32, ptr @pmix_class_init_epoch, align 4, !tbaa !41
  %12 = load ptr, ptr %3, align 8, !tbaa !200
  %13 = getelementptr inbounds nuw %struct.pmix_class_t, ptr %12, i32 0, i32 4
  %14 = load i32, ptr %13, align 8, !tbaa !81
  %15 = icmp ne i32 %11, %14
  br i1 %15, label %16, label %18

16:                                               ; preds = %2
  %17 = load ptr, ptr %3, align 8, !tbaa !200
  call void @pmix_class_initialize(ptr noundef %17)
  br label %18

18:                                               ; preds = %16, %2
  %19 = load ptr, ptr %5, align 8, !tbaa !150
  %20 = icmp ne ptr null, %19
  br i1 %20, label %21, label %60

21:                                               ; preds = %18
  %22 = load ptr, ptr %5, align 8, !tbaa !150
  %23 = getelementptr inbounds nuw %struct.pmix_object_t, ptr %22, i32 0, i32 0
  %24 = call i32 @pthread_mutex_init(ptr noundef %23, ptr noundef null) #13
  %25 = load ptr, ptr %3, align 8, !tbaa !200
  %26 = load ptr, ptr %5, align 8, !tbaa !150
  %27 = getelementptr inbounds nuw %struct.pmix_object_t, ptr %26, i32 0, i32 1
  store ptr %25, ptr %27, align 8, !tbaa !83
  %28 = load ptr, ptr %5, align 8, !tbaa !150
  %29 = getelementptr inbounds nuw %struct.pmix_object_t, ptr %28, i32 0, i32 2
  store i32 1, ptr %29, align 8, !tbaa !84
  %30 = load ptr, ptr %4, align 8, !tbaa !153
  %31 = icmp eq ptr null, %30
  br i1 %31, label %32, label %54

32:                                               ; preds = %21
  %33 = load ptr, ptr %5, align 8, !tbaa !150
  %34 = getelementptr inbounds nuw %struct.pmix_object_t, ptr %33, i32 0, i32 3
  %35 = getelementptr inbounds nuw %struct.pmix_tma, ptr %34, i32 0, i32 0
  store ptr null, ptr %35, align 8, !tbaa !155
  %36 = load ptr, ptr %5, align 8, !tbaa !150
  %37 = getelementptr inbounds nuw %struct.pmix_object_t, ptr %36, i32 0, i32 3
  %38 = getelementptr inbounds nuw %struct.pmix_tma, ptr %37, i32 0, i32 1
  store ptr null, ptr %38, align 8, !tbaa !156
  %39 = load ptr, ptr %5, align 8, !tbaa !150
  %40 = getelementptr inbounds nuw %struct.pmix_object_t, ptr %39, i32 0, i32 3
  %41 = getelementptr inbounds nuw %struct.pmix_tma, ptr %40, i32 0, i32 2
  store ptr null, ptr %41, align 8, !tbaa !157
  %42 = load ptr, ptr %5, align 8, !tbaa !150
  %43 = getelementptr inbounds nuw %struct.pmix_object_t, ptr %42, i32 0, i32 3
  %44 = getelementptr inbounds nuw %struct.pmix_tma, ptr %43, i32 0, i32 3
  store ptr null, ptr %44, align 8, !tbaa !158
  %45 = load ptr, ptr %5, align 8, !tbaa !150
  %46 = getelementptr inbounds nuw %struct.pmix_object_t, ptr %45, i32 0, i32 3
  %47 = getelementptr inbounds nuw %struct.pmix_tma, ptr %46, i32 0, i32 5
  store ptr null, ptr %47, align 8, !tbaa !152
  %48 = load ptr, ptr %5, align 8, !tbaa !150
  %49 = getelementptr inbounds nuw %struct.pmix_object_t, ptr %48, i32 0, i32 3
  %50 = getelementptr inbounds nuw %struct.pmix_tma, ptr %49, i32 0, i32 6
  store ptr null, ptr %50, align 8, !tbaa !160
  %51 = load ptr, ptr %5, align 8, !tbaa !150
  %52 = getelementptr inbounds nuw %struct.pmix_object_t, ptr %51, i32 0, i32 3
  %53 = getelementptr inbounds nuw %struct.pmix_tma, ptr %52, i32 0, i32 7
  store ptr null, ptr %53, align 8, !tbaa !161
  br label %58

54:                                               ; preds = %21
  %55 = load ptr, ptr %5, align 8, !tbaa !150
  %56 = getelementptr inbounds nuw %struct.pmix_object_t, ptr %55, i32 0, i32 3
  %57 = load ptr, ptr %4, align 8, !tbaa !153
  call void @llvm.memcpy.p0.p0.i64(ptr align 8 %56, ptr align 8 %57, i64 64, i1 false), !tbaa.struct !162
  br label %58

58:                                               ; preds = %54, %32
  %59 = load ptr, ptr %5, align 8, !tbaa !150
  call void @pmix_obj_run_constructors(ptr noundef %59)
  br label %60

60:                                               ; preds = %58, %18
  %61 = load ptr, ptr %5, align 8, !tbaa !150
  call void @llvm.lifetime.end.p0(i64 8, ptr %5) #13
  ret ptr %61
}

; Function Attrs: nounwind uwtable
define internal void @dmdx_cbfunc(i32 noundef %0, ptr noundef %1, i64 noundef %2, ptr noundef %3, ptr noundef %4, ptr noundef %5) #0 {
  %7 = alloca i32, align 4
  %8 = alloca ptr, align 8
  %9 = alloca i64, align 8
  %10 = alloca ptr, align 8
  %11 = alloca ptr, align 8
  %12 = alloca ptr, align 8
  %13 = alloca ptr, align 8
  store i32 %0, ptr %7, align 4, !tbaa !41
  store ptr %1, ptr %8, align 8, !tbaa !28
  store i64 %2, ptr %9, align 8, !tbaa !65
  store ptr %3, ptr %10, align 8, !tbaa !3
  store ptr %4, ptr %11, align 8, !tbaa !3
  store ptr %5, ptr %12, align 8, !tbaa !3
  call void @llvm.lifetime.start.p0(i64 8, ptr %13) #13
  %14 = call ptr @pmix_obj_new_tma(ptr noundef @pmix_dmdx_reply_caddy_t_class, ptr noundef null)
  store ptr %14, ptr %13, align 8, !tbaa !3
  %15 = load i32, ptr %7, align 4, !tbaa !41
  %16 = load ptr, ptr %13, align 8, !tbaa !3
  %17 = getelementptr inbounds nuw %struct.pmix_dmdx_reply_caddy_t, ptr %16, i32 0, i32 3
  store i32 %15, ptr %17, align 4, !tbaa !7
  %18 = load ptr, ptr %11, align 8, !tbaa !3
  %19 = load ptr, ptr %13, align 8, !tbaa !3
  %20 = getelementptr inbounds nuw %struct.pmix_dmdx_reply_caddy_t, ptr %19, i32 0, i32 7
  store ptr %18, ptr %20, align 8, !tbaa !26
  %21 = load ptr, ptr %12, align 8, !tbaa !3
  %22 = load ptr, ptr %13, align 8, !tbaa !3
  %23 = getelementptr inbounds nuw %struct.pmix_dmdx_reply_caddy_t, ptr %22, i32 0, i32 8
  store ptr %21, ptr %23, align 8, !tbaa !27
  %24 = load ptr, ptr %8, align 8, !tbaa !28
  %25 = load ptr, ptr %13, align 8, !tbaa !3
  %26 = getelementptr inbounds nuw %struct.pmix_dmdx_reply_caddy_t, ptr %25, i32 0, i32 4
  store ptr %24, ptr %26, align 8, !tbaa !182
  %27 = load i64, ptr %9, align 8, !tbaa !65
  %28 = load ptr, ptr %13, align 8, !tbaa !3
  %29 = getelementptr inbounds nuw %struct.pmix_dmdx_reply_caddy_t, ptr %28, i32 0, i32 5
  store i64 %27, ptr %29, align 8, !tbaa !24
  %30 = load ptr, ptr %10, align 8, !tbaa !3
  %31 = load ptr, ptr %13, align 8, !tbaa !3
  %32 = getelementptr inbounds nuw %struct.pmix_dmdx_reply_caddy_t, ptr %31, i32 0, i32 6
  store ptr %30, ptr %32, align 8, !tbaa !25
  %33 = load i32, ptr getelementptr inbounds nuw (%struct.pmix_server_globals_t, ptr @pmix_server_globals, i32 0, i32 17), align 4, !tbaa !31
  %34 = icmp sge i32 %33, 0
  br i1 %34, label %35, label %59

35:                                               ; preds = %6
  %36 = load i32, ptr getelementptr inbounds nuw (%struct.pmix_server_globals_t, ptr @pmix_server_globals, i32 0, i32 17), align 4, !tbaa !31
  %37 = icmp slt i32 %36, 64
  br i1 %37, label %38, label %59

38:                                               ; preds = %35
  %39 = load i32, ptr getelementptr inbounds nuw (%struct.pmix_server_globals_t, ptr @pmix_server_globals, i32 0, i32 17), align 4, !tbaa !31
  %40 = sext i32 %39 to i64
  %41 = getelementptr inbounds [0 x %struct.pmix_output_desc_t], ptr @pmix_output_info, i64 0, i64 %40
  %42 = getelementptr inbounds nuw %struct.pmix_output_desc_t, ptr %41, i32 0, i32 2
  %43 = load i32, ptr %42, align 4, !tbaa !39
  %44 = icmp sge i32 %43, 2
  br i1 %44, label %45, label %59

45:                                               ; preds = %38
  %46 = load i32, ptr getelementptr inbounds nuw (%struct.pmix_server_globals_t, ptr @pmix_server_globals, i32 0, i32 17), align 4, !tbaa !31
  %47 = load ptr, ptr %13, align 8, !tbaa !3
  %48 = getelementptr inbounds nuw %struct.pmix_dmdx_reply_caddy_t, ptr %47, i32 0, i32 6
  %49 = load ptr, ptr %48, align 8, !tbaa !25
  %50 = getelementptr inbounds nuw %struct.pmix_dmdx_local_t, ptr %49, i32 0, i32 1
  %51 = getelementptr inbounds nuw %struct.pmix_proc, ptr %50, i32 0, i32 0
  %52 = getelementptr inbounds [256 x i8], ptr %51, i64 0, i64 0
  %53 = load ptr, ptr %13, align 8, !tbaa !3
  %54 = getelementptr inbounds nuw %struct.pmix_dmdx_reply_caddy_t, ptr %53, i32 0, i32 6
  %55 = load ptr, ptr %54, align 8, !tbaa !25
  %56 = getelementptr inbounds nuw %struct.pmix_dmdx_local_t, ptr %55, i32 0, i32 1
  %57 = getelementptr inbounds nuw %struct.pmix_proc, ptr %56, i32 0, i32 1
  %58 = load i32, ptr %57, align 8, !tbaa !183
  call void (i32, ptr, ...) @pmix_output(i32 noundef %46, ptr noundef @.str.26, ptr noundef @.str.3, i32 noundef 1275, ptr noundef %52, i32 noundef %58)
  br label %59

59:                                               ; preds = %45, %38, %35, %6
  br label %60

60:                                               ; preds = %59
  %61 = load ptr, ptr %13, align 8, !tbaa !3
  %62 = getelementptr inbounds nuw %struct.pmix_dmdx_reply_caddy_t, ptr %61, i32 0, i32 1
  %63 = load ptr, ptr getelementptr inbounds nuw (%struct.pmix_globals_t, ptr @pmix_globals, i32 0, i32 13), align 8, !tbaa !175
  %64 = load ptr, ptr %13, align 8, !tbaa !3
  %65 = call i32 @pmix_event_assign(ptr noundef %62, ptr noundef %63, i32 noundef -1, i16 noundef signext 4, ptr noundef @_process_dmdx_reply, ptr noundef %64)
  call void @pmix_atomic_wmb()
  %66 = load ptr, ptr %13, align 8, !tbaa !3
  %67 = getelementptr inbounds nuw %struct.pmix_dmdx_reply_caddy_t, ptr %66, i32 0, i32 1
  call void @event_active(ptr noundef %67, i32 noundef 4, i16 noundef signext 1)
  br label %68

68:                                               ; preds = %60
  br label %69

69:                                               ; preds = %68
  call void @llvm.lifetime.end.p0(i64 8, ptr %13) #13
  ret void
}