; Function Attrs: nounwind uwtable
define internal void @dmdx_cbfunc(i32 noundef %0, ptr noundef %1, i64 noundef %2, ptr noundef %3, ptr noundef %4, ptr noundef %5) #1 {
  %7 = load i64, ptr getelementptr inbounds nuw (i8, ptr @pmix_dmdx_reply_caddy_t_class, i64 56), align 8, !tbaa !145
  %8 = tail call noalias noundef ptr @malloc(i64 noundef %7) #20
  %9 = load i32, ptr @pmix_class_init_epoch, align 4, !tbaa !34
  %10 = load i32, ptr getelementptr inbounds nuw (i8, ptr @pmix_dmdx_reply_caddy_t_class, i64 32), align 8, !tbaa !71
  %.not.i = icmp eq i32 %9, %10
  br i1 %.not.i, label %12, label %11

11:                                               ; preds = %6
  tail call void @pmix_class_initialize(ptr noundef nonnull @pmix_dmdx_reply_caddy_t_class) #15
  br label %12

12:                                               ; preds = %11, %6
  %.not22.i = icmp eq ptr %8, null
  br i1 %.not22.i, label %pmix_obj_new_tma.exit, label %13

13:                                               ; preds = %12
  %14 = tail call i32 @pthread_mutex_init(ptr noundef nonnull %8, ptr noundef null) #15
  %15 = getelementptr inbounds nuw i8, ptr %8, i64 40
  store ptr @pmix_dmdx_reply_caddy_t_class, ptr %15, align 8, !tbaa !73
  %16 = getelementptr inbounds nuw i8, ptr %8, i64 48
  store i32 1, ptr %16, align 8, !tbaa !74
  %17 = getelementptr inbounds nuw i8, ptr %8, i64 56
  %18 = getelementptr inbounds nuw i8, ptr %8, i64 96
  tail call void @llvm.memset.p0.i64(ptr noundef nonnull align 8 dereferenceable(32) %17, i8 0, i64 32, i1 false)
  tail call void @llvm.memset.p0.i64(ptr noundef nonnull align 8 dereferenceable(24) %18, i8 0, i64 24, i1 false)
  %19 = load ptr, ptr getelementptr inbounds nuw (i8, ptr @pmix_dmdx_reply_caddy_t_class, i64 40), align 8, !tbaa !75
  %20 = load ptr, ptr %19, align 8, !tbaa !76
  %.not6.i.i = icmp eq ptr %20, null
  br i1 %.not6.i.i, label %pmix_obj_new_tma.exit, label %.lr.ph.i.i

.lr.ph.i.i:                                       ; preds = %13, %.lr.ph.i.i
  %21 = phi ptr [ %23, %.lr.ph.i.i ], [ %20, %13 ]
  %.07.i.i = phi ptr [ %22, %.lr.ph.i.i ], [ %19, %13 ]
  tail call void %21(ptr noundef nonnull %8) #15
  %22 = getelementptr inbounds nuw i8, ptr %.07.i.i, i64 8
  %23 = load ptr, ptr %22, align 8, !tbaa !76
  %.not.i.i = icmp eq ptr %23, null
  br i1 %.not.i.i, label %pmix_obj_new_tma.exit, label %.lr.ph.i.i, !llvm.loop !77

pmix_obj_new_tma.exit:                            ; preds = %.lr.ph.i.i, %12, %13
  %24 = getelementptr inbounds nuw i8, ptr %8, i64 252
  store i32 %0, ptr %24, align 4, !tbaa !3
  %25 = getelementptr inbounds nuw i8, ptr %8, i64 280
  store ptr %4, ptr %25, align 8, !tbaa !161
  %26 = getelementptr inbounds nuw i8, ptr %8, i64 288
  store ptr %5, ptr %26, align 8, !tbaa !162
  %27 = getelementptr inbounds nuw i8, ptr %8, i64 256
  store ptr %1, ptr %27, align 8, !tbaa !163
  %28 = getelementptr inbounds nuw i8, ptr %8, i64 264
  store i64 %2, ptr %28, align 8, !tbaa !164
  %29 = getelementptr inbounds nuw i8, ptr %8, i64 272
  store ptr %3, ptr %29, align 8, !tbaa !165
  %30 = load i32, ptr getelementptr inbounds nuw (i8, ptr @pmix_server_globals, i64 2660), align 4, !tbaa !24
  %or.cond = icmp ult i32 %30, 64
  br i1 %or.cond, label %31, label %40

31:                                               ; preds = %pmix_obj_new_tma.exit
  %32 = zext nneg i32 %30 to i64
  %33 = getelementptr inbounds nuw [0 x %struct.pmix_output_desc_t], ptr @pmix_output_info, i64 0, i64 %32, i32 2
  %34 = load i32, ptr %33, align 4, !tbaa !32
  %35 = icmp sgt i32 %34, 1
  br i1 %35, label %36, label %40

36:                                               ; preds = %31
  %37 = getelementptr inbounds nuw i8, ptr %3, i64 144
  %38 = getelementptr inbounds nuw i8, ptr %3, i64 400
  %39 = load i32, ptr %38, align 8, !tbaa !147
  tail call void (i32, ptr, ...) @pmix_output(i32 noundef %30, ptr noundef nonnull @.str.26, ptr noundef nonnull @.str.3, i32 noundef 1275, ptr noundef nonnull %37, i32 noundef %39) #15
  br label %40

40:                                               ; preds = %pmix_obj_new_tma.exit, %31, %36
  %41 = getelementptr inbounds nuw i8, ptr %8, i64 120
  %42 = load ptr, ptr getelementptr inbounds nuw (i8, ptr @pmix_globals, i64 376), align 8, !tbaa !158
  %43 = tail call i32 @pmix_event_assign(ptr noundef nonnull %41, ptr noundef %42, i32 noundef -1, i16 noundef signext 4, ptr noundef nonnull @_process_dmdx_reply, ptr noundef nonnull %8) #15
  fence release
  tail call void @event_active(ptr noundef nonnull %41, i32 noundef 4, i16 noundef signext 1) #15
  ret void
}